target datalayout = "e-m:e-p270:32:32-p271:32:32-p272:64:64-i64:64-i128:128-f80:128-n8:16:32:64-S128"
target triple = "x86_64-pc-linux-gnu"

%class.SystemDictionaryDCmd = type { %class.DCmdWithParser, %class.DCmdArgument }
%class.DCmdWithParser = type { %class.DCmd.base, %class.DCmdParser }
%class.DCmd.base = type <{ ptr, ptr, i8 }>
%class.DCmdParser = type { ptr, ptr }
%class.DCmdArgument = type { %class.GenDCmdArgument.base, i8, [4 x i8] }
%class.GenDCmdArgument.base = type <{ ptr, ptr, ptr, ptr, ptr, ptr, i8, i8, i8 }>
%class.VM_DumpHashtable = type <{ %class.VM_Operation, ptr, i32, i8, [3 x i8] }>
%class.VM_Operation = type { ptr, ptr }
%class.DCmd = type <{ ptr, ptr, i8, [7 x i8] }>

@_ZTV12VM_Operation = external unnamed_addr constant { [12 x ptr] }, align 8

; Function Attrs: mustprogress nounwind uwtable
define linkonce_odr hidden void @_ZN12VM_OperationC2Ev(ptr noundef nonnull align 8 dereferenceable(16) %0) unnamed_addr #1 comdat align 2 {
  %2 = alloca ptr, align 8
  store ptr %0, ptr %2, align 8
  %3 = load ptr, ptr %2, align 8
  store ptr getelementptr inbounds inrange(-16, 80) ({ [12 x ptr] }, ptr @_ZTV12VM_Operation, i32 0, i32 0, i32 2), ptr %3, align 8
  %4 = getelementptr inbounds %class.VM_Operation, ptr %3, i32 0, i32 1
  store ptr null, ptr %4, align 8
  ret void
}

; Function Attrs: mustprogress nounwind uwtable
define linkonce_odr hidden void @_ZN16VM_DumpHashtableC2EP12outputStreamib(ptr noundef nonnull align 8 dereferenceable(29) %0, ptr noundef %1, i32 noundef %2, i1 noundef zeroext %3) unnamed_addr #1 comdat align 2 {
  %5 = alloca ptr, align 8
  %6 = alloca ptr, align 8
  %7 = alloca i32, align 4
  %8 = alloca i8, align 1
  store ptr %0, ptr %5, align 8
  store ptr %1, ptr %6, align 8
  store i32 %2, ptr %7, align 4
  %9 = zext i1 %3 to i8
  store i8 %9, ptr %8, align 1
  %10 = load ptr, ptr %5, align 8
  call void @_ZN12VM_OperationC2Ev(ptr noundef nonnull align 8 dereferenceable(16) %10)
  store ptr getelementptr inbounds inrange(-16, 80) ({ [12 x ptr] }, ptr @_ZTV16VM_DumpHashtable, i32 0, i32 0, i32 2), ptr %10, align 8
  %11 = load ptr, ptr %6, align 8
  %12 = getelementptr inbounds %class.VM_DumpHashtable, ptr %10, i32 0, i32 1
  store ptr %11, ptr %12, align 8
  %13 = load i32, ptr %7, align 4
  %14 = getelementptr inbounds %class.VM_DumpHashtable, ptr %10, i32 0, i32 2
  store i32 %13, ptr %14, align 8
  %15 = load i8, ptr %8, align 1
  %16 = trunc i8 %15 to i1
  %17 = getelementptr inbounds %class.VM_DumpHashtable, ptr %10, i32 0, i32 3
  %18 = zext i1 %16 to i8
  store i8 %18, ptr %17, align 4
  ret void
}

; Function Attrs: mustprogress nounwind uwtable
define linkonce_odr hidden noundef zeroext i1 @_ZNK12DCmdArgumentIbE5valueEv(ptr noundef nonnull align 8 dereferenceable(52) %0) #1 comdat align 2 {
  %2 = alloca ptr, align 8
  store ptr %0, ptr %2, align 8
  %3 = load ptr, ptr %2, align 8
  %4 = getelementptr inbounds %class.DCmdArgument, ptr %3, i32 0, i32 1
  %5 = load i8, ptr %4, align 1
  %6 = trunc i8 %5 to i1
  ret i1 %6
}

; Function Attrs: mustprogress nounwind uwtable
define linkonce_odr hidden noundef ptr @_ZNK4DCmd6outputEv(ptr noundef nonnull align 8 dereferenceable(17) %0) #1 comdat align 2 {
  %2 = alloca ptr, align 8
  store ptr %0, ptr %2, align 8
  %3 = load ptr, ptr %2, align 8
  %4 = getelementptr inbounds %class.DCmd, ptr %3, i32 0, i32 1
  %5 = load ptr, ptr %4, align 8
  ret ptr %5
}

; Function Attrs: mustprogress nounwind uwtable
define hidden void @_ZN20SystemDictionaryDCmd7executeE10DCmdSourceP10JavaThread(ptr noundef nonnull align 8 dereferenceable(96) %0, i32 noundef %1, ptr noundef %2) unnamed_addr #1 align 2 {
  %4 = alloca ptr, align 8
  %5 = alloca i32, align 4
  %6 = alloca ptr, align 8
  %7 = alloca %class.VM_DumpHashtable, align 8
  store ptr %0, ptr %4, align 8
  store i32 %1, ptr %5, align 4
  store ptr %2, ptr %6, align 8
  %8 = load ptr, ptr %4, align 8
  %9 = call noundef ptr @_ZNK4DCmd6outputEv(ptr noundef nonnull align 8 dereferenceable(17) %8)
  %10 = getelementptr inbounds %class.SystemDictionaryDCmd, ptr %8, i32 0, i32 1
  %11 = call noundef zeroext i1 @_ZNK12DCmdArgumentIbE5valueEv(ptr noundef nonnull align 8 dereferenceable(52) %10)
  call void @_ZN16VM_DumpHashtableC2EP12outputStreamib(ptr noundef nonnull align 8 dereferenceable(29) %7, ptr noundef %9, i32 noundef 4, i1 noundef zeroext %11)
  call void @_ZN8VMThread7executeEP12VM_Operation(ptr noundef %7)
  ret void
}